; Function Attrs: mustprogress nofree nounwind willreturn memory(argmem: read) uwtable
define noundef i32 @_ZN10duckdb_hll6sdscmpEPcS0_(ptr noundef readonly captures(none) %0, ptr noundef readonly captures(none) %1) local_unnamed_addr #22 {
  %3 = getelementptr inbounds i8, ptr %0, i64 -1
  %4 = load i8, ptr %3, align 1, !tbaa !20
  %5 = zext i8 %4 to i32
  %6 = and i32 %5, 7
  switch i32 %6, label %_ZN10duckdb_hllL6sdslenEPc.exit [
    i32 0, label %7
    i32 1, label %10
    i32 2, label %14
    i32 3, label %18
    i32 4, label %22
  ]

7:                                                ; preds = %2
  %8 = lshr i32 %5, 3
  %9 = zext nneg i32 %8 to i64
  br label %_ZN10duckdb_hllL6sdslenEPc.exit

10:                                               ; preds = %2
  %11 = getelementptr inbounds i8, ptr %0, i64 -4
  %12 = load i8, ptr %11, align 1, !tbaa !3
  %13 = zext i8 %12 to i64
  br label %_ZN10duckdb_hllL6sdslenEPc.exit

14:                                               ; preds = %2
  %15 = getelementptr inbounds i8, ptr %0, i64 -6
  %16 = load i16, ptr %15, align 1, !tbaa !8
  %17 = zext i16 %16 to i64
  br label %_ZN10duckdb_hllL6sdslenEPc.exit

18:                                               ; preds = %2
  %19 = getelementptr inbounds i8, ptr %0, i64 -10
  %20 = load i32, ptr %19, align 1, !tbaa !12
  %21 = zext i32 %20 to i64
  br label %_ZN10duckdb_hllL6sdslenEPc.exit

22:                                               ; preds = %2
  %23 = getelementptr inbounds i8, ptr %0, i64 -18
  %24 = load i64, ptr %23, align 1, !tbaa !16
  br label %_ZN10duckdb_hllL6sdslenEPc.exit

_ZN10duckdb_hllL6sdslenEPc.exit:                  ; preds = %2, %7, %10, %14, %18, %22
  %.0.i = phi i64 [ %24, %22 ], [ %21, %18 ], [ %17, %14 ], [ %13, %10 ], [ %9, %7 ], [ 0, %2 ]
  %25 = getelementptr inbounds i8, ptr %1, i64 -1
  %26 = load i8, ptr %25, align 1, !tbaa !20
  %27 = zext i8 %26 to i32
  %28 = and i32 %27, 7
  switch i32 %28, label %_ZN10duckdb_hllL6sdslenEPc.exit17 [
    i32 0, label %29
    i32 1, label %32
    i32 2, label %36
    i32 3, label %40
    i32 4, label %44
  ]

29:                                               ; preds = %_ZN10duckdb_hllL6sdslenEPc.exit
  %30 = lshr i32 %27, 3
  %31 = zext nneg i32 %30 to i64
  br label %_ZN10duckdb_hllL6sdslenEPc.exit17

32:                                               ; preds = %_ZN10duckdb_hllL6sdslenEPc.exit
  %33 = getelementptr inbounds i8, ptr %1, i64 -4
  %34 = load i8, ptr %33, align 1, !tbaa !3
  %35 = zext i8 %34 to i64
  br label %_ZN10duckdb_hllL6sdslenEPc.exit17

36:                                               ; preds = %_ZN10duckdb_hllL6sdslenEPc.exit
  %37 = getelementptr inbounds i8, ptr %1, i64 -6
  %38 = load i16, ptr %37, align 1, !tbaa !8
  %39 = zext i16 %38 to i64
  br label %_ZN10duckdb_hllL6sdslenEPc.exit17

40:                                               ; preds = %_ZN10duckdb_hllL6sdslenEPc.exit
  %41 = getelementptr inbounds i8, ptr %1, i64 -10
  %42 = load i32, ptr %41, align 1, !tbaa !12
  %43 = zext i32 %42 to i64
  br label %_ZN10duckdb_hllL6sdslenEPc.exit17

44:                                               ; preds = %_ZN10duckdb_hllL6sdslenEPc.exit
  %45 = getelementptr inbounds i8, ptr %1, i64 -18
  %46 = load i64, ptr %45, align 1, !tbaa !16
  br label %_ZN10duckdb_hllL6sdslenEPc.exit17

_ZN10duckdb_hllL6sdslenEPc.exit17:                ; preds = %_ZN10duckdb_hllL6sdslenEPc.exit, %29, %32, %36, %40, %44
  %.0.i16 = phi i64 [ %46, %44 ], [ %43, %40 ], [ %39, %36 ], [ %35, %32 ], [ %31, %29 ], [ 0, %_ZN10duckdb_hllL6sdslenEPc.exit ]
  %47 = tail call i64 @llvm.umin.i64(i64 %.0.i, i64 %.0.i16)
  %48 = tail call i32 @memcmp(ptr noundef nonnull %0, ptr noundef nonnull %1, i64 noundef %47) #29
  %49 = icmp eq i32 %48, 0
  %50 = tail call i32 @llvm.ucmp.i32.i64(i64 %.0.i, i64 %.0.i16)
  %.0 = select i1 %49, i32 %50, i32 %48
  ret i32 %.0
}